; Function Attrs: mustprogress nounwind uwtable
define dso_local noundef i32 @napi_get_threadsafe_function_context(ptr noundef readonly %func, ptr noundef writeonly %result) local_unnamed_addr #3 {
entry:
  %cmp.not = icmp eq ptr %func, null
  br i1 %cmp.not, label %do.body3, label %do.body5

do.body3:                                         ; preds = %entry
  tail call void @_ZN4node6AssertERKNS_13AssertionInfoE(ptr noundef nonnull align 8 dereferenceable(24) @_ZZ36napi_get_threadsafe_function_contextE4args) #21
  tail call void @abort() #22
  unreachable

do.body5:                                         ; preds = %entry
  %cmp6.not = icmp eq ptr %result, null
  br i1 %cmp6.not, label %do.body11, label %do.end14

do.body11:                                        ; preds = %do.body5
  tail call void @_ZN4node6AssertERKNS_13AssertionInfoE(ptr noundef nonnull align 8 dereferenceable(24) @_ZZ36napi_get_threadsafe_function_contextE4args_0) #21
  tail call void @abort() #22
  unreachable

do.end14:                                         ; preds = %do.body5
  %0 = getelementptr i8, ptr %func, i64 312
  %func.val = load ptr, ptr %0, align 8
  store ptr %func.val, ptr %result, align 8
  ret i32 0
}